target datalayout = "e-m:e-p270:32:32-p271:32:32-p272:64:64-i64:64-i128:128-f80:128-n8:16:32:64-S128"
target triple = "x86_64-pc-linux-gnu"

%struct.Agobj_s = type { %struct.Agtag_s, ptr }
%struct.Agtag_s = type { i32, i64 }
%struct.Agnodeinfo_t = type { %struct.Agrec_s, ptr, ptr, %struct.pointf_s, double, double, %struct.boxf, double, double, double, double, double, ptr, ptr, ptr, i8, i8, i8, i8, i32, i32, i32, ptr, double, i8, i8, ptr, ptr, i8, i64, i8, i8, i8, ptr, ptr, %struct.elist, %struct.elist, %struct.elist, %struct.elist, %struct.elist, ptr, i32, ptr, i32, i32, double, %struct.elist, %struct.elist, %struct.elist, %struct.elist, ptr, i32, i32, i32, [1 x double] }
%struct.Agrec_s = type { ptr, ptr }
%struct.pointf_s = type { double, double }
%struct.boxf = type { %struct.pointf_s, %struct.pointf_s }
%struct.elist = type { ptr, i64 }
%struct.cdata = type { %union.anon.0, i32, ptr, ptr, %union.anon.1 }
%union.anon.0 = type { ptr }
%union.anon.1 = type { %struct.anon.2 }
%struct.anon.2 = type { ptr, ptr, ptr, i32, i32 }
%struct.Agedge_s = type { %struct.Agobj_s, %struct.dtlink_s_, %struct.dtlink_s_, ptr }
%struct.dtlink_s_ = type { ptr, %union.anon }
%union.anon = type { ptr }

; Function Attrs: nounwind uwtable
define internal void @dfs(ptr noundef %0, ptr noundef %1, ptr noundef %2) #0 {
  %4 = alloca ptr, align 8
  %5 = alloca ptr, align 8
  %6 = alloca ptr, align 8
  %7 = alloca ptr, align 8
  %8 = alloca ptr, align 8
  store ptr %0, ptr %4, align 8, !tbaa !3
  store ptr %1, ptr %5, align 8, !tbaa !24
  store ptr %2, ptr %6, align 8, !tbaa !3
  call void @llvm.lifetime.start.p0(i64 8, ptr %7) #13
  call void @llvm.lifetime.start.p0(i64 8, ptr %8) #13
  %9 = load ptr, ptr %5, align 8, !tbaa !24
  %10 = getelementptr inbounds nuw %struct.Agobj_s, ptr %9, i32 0, i32 1
  %11 = load ptr, ptr %10, align 8, !tbaa !25
  %12 = getelementptr inbounds nuw %struct.Agnodeinfo_t, ptr %11, i32 0, i32 14
  %13 = load ptr, ptr %12, align 8, !tbaa !29
  %14 = getelementptr inbounds nuw %struct.cdata, ptr %13, i32 0, i32 1
  %15 = load i32, ptr %14, align 8, !tbaa !42
  %16 = or i32 %15, 1
  store i32 %16, ptr %14, align 8, !tbaa !42
  %17 = load ptr, ptr %4, align 8, !tbaa !3
  %18 = load ptr, ptr %5, align 8, !tbaa !24
  %19 = call ptr @agfstedge(ptr noundef %17, ptr noundef %18)
  store ptr %19, ptr %7, align 8, !tbaa !53
  br label %20

20:                                               ; preds = %82, %3
  %21 = load ptr, ptr %7, align 8, !tbaa !53
  %22 = icmp ne ptr %21, null
  br i1 %22, label %23, label %87

23:                                               ; preds = %20
  %24 = load ptr, ptr %7, align 8, !tbaa !53
  %25 = getelementptr inbounds nuw %struct.Agobj_s, ptr %24, i32 0, i32 0
  %26 = load i32, ptr %25, align 8
  %27 = and i32 %26, 3
  %28 = icmp eq i32 %27, 2
  br i1 %28, label %29, label %31

29:                                               ; preds = %23
  %30 = load ptr, ptr %7, align 8, !tbaa !53
  br label %34

31:                                               ; preds = %23
  %32 = load ptr, ptr %7, align 8, !tbaa !53
  %33 = getelementptr inbounds %struct.Agedge_s, ptr %32, i64 -1
  br label %34

34:                                               ; preds = %31, %29
  %35 = phi ptr [ %30, %29 ], [ %33, %31 ]
  %36 = getelementptr inbounds nuw %struct.Agedge_s, ptr %35, i32 0, i32 3
  %37 = load ptr, ptr %36, align 8, !tbaa !54
  store ptr %37, ptr %8, align 8, !tbaa !24
  %38 = load ptr, ptr %8, align 8, !tbaa !24
  %39 = load ptr, ptr %5, align 8, !tbaa !24
  %40 = icmp eq ptr %38, %39
  br i1 %40, label %41, label %56

41:                                               ; preds = %34
  %42 = load ptr, ptr %7, align 8, !tbaa !53
  %43 = getelementptr inbounds nuw %struct.Agobj_s, ptr %42, i32 0, i32 0
  %44 = load i32, ptr %43, align 8
  %45 = and i32 %44, 3
  %46 = icmp eq i32 %45, 3
  br i1 %46, label %47, label %49

47:                                               ; preds = %41
  %48 = load ptr, ptr %7, align 8, !tbaa !53
  br label %52

49:                                               ; preds = %41
  %50 = load ptr, ptr %7, align 8, !tbaa !53
  %51 = getelementptr inbounds %struct.Agedge_s, ptr %50, i64 1
  br label %52

52:                                               ; preds = %49, %47
  %53 = phi ptr [ %48, %47 ], [ %51, %49 ]
  %54 = getelementptr inbounds nuw %struct.Agedge_s, ptr %53, i32 0, i32 3
  %55 = load ptr, ptr %54, align 8, !tbaa !54
  store ptr %55, ptr %8, align 8, !tbaa !24
  br label %56

56:                                               ; preds = %52, %34
  %57 = load ptr, ptr %8, align 8, !tbaa !24
  %58 = getelementptr inbounds nuw %struct.Agobj_s, ptr %57, i32 0, i32 1
  %59 = load ptr, ptr %58, align 8, !tbaa !25
  %60 = getelementptr inbounds nuw %struct.Agnodeinfo_t, ptr %59, i32 0, i32 14
  %61 = load ptr, ptr %60, align 8, !tbaa !29
  %62 = getelementptr inbounds nuw %struct.cdata, ptr %61, i32 0, i32 1
  %63 = load i32, ptr %62, align 8, !tbaa !42
  %64 = and i32 %63, 1
  %65 = icmp ne i32 %64, 0
  br i1 %65, label %81, label %66

66:                                               ; preds = %56
  %67 = load ptr, ptr %6, align 8, !tbaa !3
  %68 = load ptr, ptr %7, align 8, !tbaa !53
  %69 = call ptr @agsubedge(ptr noundef %67, ptr noundef %68, i32 noundef 1)
  %70 = load ptr, ptr %5, align 8, !tbaa !24
  %71 = load ptr, ptr %8, align 8, !tbaa !24
  %72 = getelementptr inbounds nuw %struct.Agobj_s, ptr %71, i32 0, i32 1
  %73 = load ptr, ptr %72, align 8, !tbaa !25
  %74 = getelementptr inbounds nuw %struct.Agnodeinfo_t, ptr %73, i32 0, i32 14
  %75 = load ptr, ptr %74, align 8, !tbaa !29
  %76 = getelementptr inbounds nuw %struct.cdata, ptr %75, i32 0, i32 4
  %77 = getelementptr inbounds nuw %struct.anon.2, ptr %76, i32 0, i32 0
  store ptr %70, ptr %77, align 8, !tbaa !47
  %78 = load ptr, ptr %4, align 8, !tbaa !3
  %79 = load ptr, ptr %8, align 8, !tbaa !24
  %80 = load ptr, ptr %6, align 8, !tbaa !3
  call void @dfs(ptr noundef %78, ptr noundef %79, ptr noundef %80)
  br label %81

81:                                               ; preds = %66, %56
  br label %82

82:                                               ; preds = %81
  %83 = load ptr, ptr %4, align 8, !tbaa !3
  %84 = load ptr, ptr %7, align 8, !tbaa !53
  %85 = load ptr, ptr %5, align 8, !tbaa !24
  %86 = call ptr @agnxtedge(ptr noundef %83, ptr noundef %84, ptr noundef %85)
  store ptr %86, ptr %7, align 8, !tbaa !53
  br label %20, !llvm.loop !116

87:                                               ; preds = %20
  call void @llvm.lifetime.end.p0(i64 8, ptr %8) #13
  call void @llvm.lifetime.end.p0(i64 8, ptr %7) #13
  ret void
}