; Function Attrs: nounwind uwtable
define internal fastcc void @dfs(ptr noundef %0, ptr noundef %1, ptr noundef %2) unnamed_addr #0 {
  %4 = getelementptr inbounds nuw i8, ptr %1, i64 16
  %5 = load ptr, ptr %4, align 8, !tbaa !24
  %6 = getelementptr inbounds nuw i8, ptr %5, i64 152
  %7 = load ptr, ptr %6, align 8, !tbaa !25
  %8 = getelementptr inbounds nuw i8, ptr %7, i64 8
  %9 = load i32, ptr %8, align 8, !tbaa !78
  %10 = or i32 %9, 1
  store i32 %10, ptr %8, align 8, !tbaa !78
  %11 = tail call ptr @agfstedge(ptr noundef %0, ptr noundef %1) #22
  %.not27 = icmp eq ptr %11, null
  br i1 %.not27, label %._crit_edge, label %.lr.ph

.lr.ph:                                           ; preds = %3, %38
  %.02328 = phi ptr [ %39, %38 ], [ %11, %3 ]
  %12 = load i32, ptr %.02328, align 8
  %13 = and i32 %12, 3
  %14 = icmp eq i32 %13, 2
  %.idx = select i1 %14, i64 0, i64 -64
  %15 = getelementptr inbounds i8, ptr %.02328, i64 %.idx
  %16 = getelementptr inbounds nuw i8, ptr %15, i64 56
  %17 = load ptr, ptr %16, align 8, !tbaa !17
  %18 = icmp eq ptr %17, %1
  br i1 %18, label %19, label %24

19:                                               ; preds = %.lr.ph
  %20 = icmp eq i32 %13, 3
  %.idx25 = select i1 %20, i64 0, i64 64
  %21 = getelementptr inbounds nuw i8, ptr %.02328, i64 %.idx25
  %22 = getelementptr inbounds nuw i8, ptr %21, i64 56
  %23 = load ptr, ptr %22, align 8, !tbaa !17
  br label %24

24:                                               ; preds = %19, %.lr.ph
  %.0 = phi ptr [ %23, %19 ], [ %17, %.lr.ph ]
  %25 = getelementptr inbounds nuw i8, ptr %.0, i64 16
  %26 = load ptr, ptr %25, align 8, !tbaa !24
  %27 = getelementptr inbounds nuw i8, ptr %26, i64 152
  %28 = load ptr, ptr %27, align 8, !tbaa !25
  %29 = getelementptr inbounds nuw i8, ptr %28, i64 8
  %30 = load i32, ptr %29, align 8, !tbaa !78
  %31 = and i32 %30, 1
  %.not26 = icmp eq i32 %31, 0
  br i1 %.not26, label %32, label %38

32:                                               ; preds = %24
  %33 = tail call ptr @agsubedge(ptr noundef %2, ptr noundef nonnull %.02328, i32 noundef 1) #22
  %34 = load ptr, ptr %25, align 8, !tbaa !24
  %35 = getelementptr inbounds nuw i8, ptr %34, i64 152
  %36 = load ptr, ptr %35, align 8, !tbaa !25
  %37 = getelementptr inbounds nuw i8, ptr %36, i64 32
  store ptr %1, ptr %37, align 8, !tbaa !46
  tail call fastcc void @dfs(ptr noundef %0, ptr noundef nonnull %.0, ptr noundef %2)
  br label %38

38:                                               ; preds = %24, %32
  %39 = tail call ptr @agnxtedge(ptr noundef %0, ptr noundef nonnull %.02328, ptr noundef %1) #22
  %.not = icmp eq ptr %39, null
  br i1 %.not, label %._crit_edge, label %.lr.ph, !llvm.loop !126

._crit_edge:                                      ; preds = %38, %3
  ret void
}